; Function Attrs: mustprogress uwtable
define internal fastcc void @_ZN12_GLOBAL__N_111XpropWorker12mark_maybe_xERKN5Yosys5RTLIL7SigSpecE(ptr noundef nonnull align 8 dereferenceable(832) %0, ptr noundef nonnull align 8 dereferenceable(56) %1) unnamed_addr #4 align 2 {
  %3 = load i32, ptr %1, align 8, !tbaa !251
  %.not11 = icmp eq i32 %3, 0
  br i1 %.not11, label %._crit_edge, label %.lr.ph

.lr.ph:                                           ; preds = %2
  %4 = getelementptr inbounds nuw i8, ptr %1, i64 8
  %5 = getelementptr inbounds nuw i8, ptr %1, i64 16
  %6 = getelementptr inbounds nuw i8, ptr %1, i64 32
  %7 = getelementptr inbounds nuw i8, ptr %1, i64 40
  %8 = zext i32 %3 to i64
  br label %9

._crit_edge:                                      ; preds = %_ZNK5Yosys5RTLIL20SigSpecConstIteratordeEv.exit, %2
  ret void

9:                                                ; preds = %.lr.ph, %_ZNK5Yosys5RTLIL20SigSpecConstIteratordeEv.exit
  %indvars.iv = phi i64 [ 0, %.lr.ph ], [ %indvars.iv.next, %_ZNK5Yosys5RTLIL20SigSpecConstIteratordeEv.exit ]
  %10 = load ptr, ptr %4, align 8, !tbaa !259
  %11 = load ptr, ptr %5, align 8, !tbaa !259
  %12 = icmp eq ptr %10, %11
  br i1 %12, label %_ZNK5Yosys5RTLIL7SigSpec13inline_unpackEv.exit.i.i, label %13

13:                                               ; preds = %9
  tail call void @_ZNK5Yosys5RTLIL7SigSpec6unpackEv(ptr noundef nonnull align 8 dereferenceable(56) %1)
  br label %_ZNK5Yosys5RTLIL7SigSpec13inline_unpackEv.exit.i.i

_ZNK5Yosys5RTLIL7SigSpec13inline_unpackEv.exit.i.i: ; preds = %13, %9
  %14 = load ptr, ptr %7, align 8, !tbaa !260
  %15 = load ptr, ptr %6, align 8, !tbaa !145
  %16 = ptrtoint ptr %14 to i64
  %17 = ptrtoint ptr %15 to i64
  %18 = sub i64 %16, %17
  %19 = ashr exact i64 %18, 4
  %.not.i.i.i.i = icmp ugt i64 %19, %indvars.iv
  br i1 %.not.i.i.i.i, label %_ZNK5Yosys5RTLIL20SigSpecConstIteratordeEv.exit, label %20

20:                                               ; preds = %_ZNK5Yosys5RTLIL7SigSpec13inline_unpackEv.exit.i.i
  tail call void (ptr, ...) @_ZSt24__throw_out_of_range_fmtPKcz(ptr noundef nonnull @.str.68, i64 noundef %indvars.iv, i64 noundef %19) #25
  unreachable

_ZNK5Yosys5RTLIL20SigSpecConstIteratordeEv.exit:  ; preds = %_ZNK5Yosys5RTLIL7SigSpec13inline_unpackEv.exit.i.i
  %21 = getelementptr inbounds nuw %"struct.Yosys::RTLIL::SigBit", ptr %15, i64 %indvars.iv
  %.sroa.01.0.copyload = load ptr, ptr %21, align 8, !tbaa !261
  %.sroa.4.0..sroa_idx = getelementptr inbounds nuw i8, ptr %21, i64 8
  %.sroa.4.0.copyload = load i32, ptr %.sroa.4.0..sroa_idx, align 8, !tbaa !16
  tail call fastcc void @_ZN12_GLOBAL__N_111XpropWorker12mark_maybe_xEN5Yosys5RTLIL6SigBitE(ptr noundef nonnull align 8 dereferenceable(832) %0, ptr %.sroa.01.0.copyload, i32 %.sroa.4.0.copyload)
  %indvars.iv.next = add nuw nsw i64 %indvars.iv, 1
  %.not = icmp eq i64 %indvars.iv.next, %8
  br i1 %.not, label %._crit_edge, label %9
}